; Function Attrs: mustprogress nofree norecurse nosync nounwind willreturn memory(readwrite, inaccessiblemem: none) uwtable
define hidden void @_ZN2dd11bdd_manager14reorder_decrefEj(ptr nocapture noundef nonnull readonly align 8 dereferenceable(728) %this, i32 noundef %n) local_unnamed_addr #12 align 2 {
entry:
  %m_reorder_rc = getelementptr inbounds i8, ptr %this, i64 712
  %0 = load ptr, ptr %m_reorder_rc, align 8
  %idxprom.i = zext i32 %n to i64
  %arrayidx.i = getelementptr inbounds i32, ptr %0, i64 %idxprom.i
  %1 = load i32, ptr %arrayidx.i, align 4
  %cmp.not = icmp eq i32 %1, -1
  br i1 %cmp.not, label %if.end, label %if.then

if.then:                                          ; preds = %entry
  %dec = add i32 %1, -1
  store i32 %dec, ptr %arrayidx.i, align 4
  br label %if.end

if.end:                                           ; preds = %if.then, %entry
  ret void
}